; Function Attrs: mustprogress nounwind uwtable
define hidden void @_ZN9xmlStream4nameEPK6Symbol(ptr noundef nonnull align 8 dereferenceable(152) %0, ptr noundef %1) local_unnamed_addr #0 align 2 {
  %3 = icmp eq ptr %1, null
  br i1 %3, label %6, label %_ZN9xmlStream9name_textEPK6Symbol.exit

_ZN9xmlStream9name_textEPK6Symbol.exit:           ; preds = %2
  tail call void @_ZN12outputStream9print_rawEPKcm(ptr noundef nonnull align 8 dereferenceable(56) %0, ptr noundef nonnull @.str.35, i64 noundef 7) #8
  %4 = getelementptr inbounds i8, ptr %0, i64 80
  %5 = load ptr, ptr %4, align 8
  tail call void @_ZNK6Symbol15print_symbol_onEP12outputStream(ptr noundef nonnull align 4 dereferenceable(8) %1, ptr noundef %5) #8
  tail call void @_ZN12outputStream9print_rawEPKcm(ptr noundef nonnull align 8 dereferenceable(56) %0, ptr noundef nonnull @.str.21, i64 noundef 1) #8
  br label %6

6:                                                ; preds = %2, %_ZN9xmlStream9name_textEPK6Symbol.exit
  ret void
}